target datalayout = "e-m:e-p270:32:32-p271:32:32-p272:64:64-i64:64-i128:128-f80:128-n8:16:32:64-S128"
target triple = "x86_64-pc-linux-gnu"

%struct.AVCodecContext = type { ptr, i32, i32, ptr, i32, i32, ptr, ptr, ptr, i64, i32, i32, ptr, i32, %struct.AVRational, %struct.AVRational, %struct.AVRational, i32, i32, i32, i32, i32, %struct.AVRational, i32, i32, i32, i32, i32, i32, i32, i32, i32, i32, i32, ptr, ptr, i32, float, float, float, float, float, float, float, float, float, i32, i32, i32, i32, i32, i32, i32, i32, i32, i32, i32, i32, ptr, ptr, ptr, i32, i32, i32, i32, i32, i32, i32, i32, i32, i32, %struct.AVChannelLayout, i32, i32, i32, i32, i32, i32, i32, i32, ptr, i32, i32, i32, float, float, i32, i32, i32, i32, i32, ptr, i64, i64, float, float, i32, i32, ptr, ptr, i32, i32, i32, i32, i32, ptr, ptr, ptr, ptr, i32, i32, [8 x i64], i32, i32, i32, i32, i32, i32, i32, ptr, ptr, i32, i32, i32, i32, i32, i32, i32, i32, i32, i32, ptr, ptr, i32, i32, ptr, ptr, ptr, ptr, i32, i32, i64, i32, i32, i64, ptr, i64, ptr, i32, ptr, i32 }
%struct.AVRational = type { i32, i32 }
%struct.AVChannelLayout = type { i32, i32, %union.anon.0, ptr }
%union.anon.0 = type { i64 }
%struct.MadContext = type { ptr, %struct.BlockDSPContext, %struct.BswapDSPContext, ptr, %struct.GetBitContext, ptr, i32, [4 x i8], [64 x i16], [64 x i16] }
%struct.BlockDSPContext = type { ptr, ptr, [2 x ptr] }
%struct.BswapDSPContext = type { ptr, ptr }
%struct.GetBitContext = type { ptr, ptr, i32, i32, i32 }

; Function Attrs: cold nounwind optsize uwtable
define internal i32 @decode_init(ptr noundef %0) #0 {
  %2 = alloca i32, align 4
  %3 = alloca ptr, align 8
  %4 = alloca ptr, align 8
  %5 = alloca i32, align 4
  store ptr %0, ptr %3, align 8, !tbaa !4
  call void @llvm.lifetime.start.p0(i64 8, ptr %4) #9
  %6 = load ptr, ptr %3, align 8, !tbaa !4
  %7 = getelementptr inbounds nuw %struct.AVCodecContext, ptr %6, i32 0, i32 6
  %8 = load ptr, ptr %7, align 8, !tbaa !9
  store ptr %8, ptr %4, align 8, !tbaa !29
  %9 = load ptr, ptr %3, align 8, !tbaa !4
  %10 = load ptr, ptr %4, align 8, !tbaa !29
  %11 = getelementptr inbounds nuw %struct.MadContext, ptr %10, i32 0, i32 0
  store ptr %9, ptr %11, align 16, !tbaa !31
  %12 = load ptr, ptr %3, align 8, !tbaa !4
  %13 = getelementptr inbounds nuw %struct.AVCodecContext, ptr %12, i32 0, i32 23
  store i32 0, ptr %13, align 8, !tbaa !37
  %14 = load ptr, ptr %4, align 8, !tbaa !29
  %15 = getelementptr inbounds nuw %struct.MadContext, ptr %14, i32 0, i32 1
  call void @ff_blockdsp_init(ptr noundef %15)
  %16 = load ptr, ptr %4, align 8, !tbaa !29
  %17 = getelementptr inbounds nuw %struct.MadContext, ptr %16, i32 0, i32 2
  call void @ff_bswapdsp_init(ptr noundef %17)
  call void @ff_mpeg12_init_vlcs()
  %18 = call ptr @av_frame_alloc()
  %19 = load ptr, ptr %4, align 8, !tbaa !29
  %20 = getelementptr inbounds nuw %struct.MadContext, ptr %19, i32 0, i32 3
  store ptr %18, ptr %20, align 8, !tbaa !38
  %21 = load ptr, ptr %4, align 8, !tbaa !29
  %22 = getelementptr inbounds nuw %struct.MadContext, ptr %21, i32 0, i32 3
  %23 = load ptr, ptr %22, align 8, !tbaa !38
  %24 = icmp ne ptr %23, null
  br i1 %24, label %26, label %25

25:                                               ; preds = %1
  store i32 -12, ptr %2, align 4
  store i32 1, ptr %5, align 4
  br label %27

26:                                               ; preds = %1
  store i32 0, ptr %2, align 4
  store i32 1, ptr %5, align 4
  br label %27

27:                                               ; preds = %26, %25
  call void @llvm.lifetime.end.p0(i64 8, ptr %4) #9
  %28 = load i32, ptr %2, align 4
  ret i32 %28
}