; Function Attrs: cold nounwind optsize uwtable
define internal range(i32 -12, 1) i32 @decode_init(ptr noundef %0) #0 {
  %2 = getelementptr inbounds nuw i8, ptr %0, i64 32
  %3 = load ptr, ptr %2, align 8, !tbaa !4
  store ptr %0, ptr %3, align 16, !tbaa !27
  %4 = getelementptr inbounds nuw i8, ptr %0, i64 136
  store i32 0, ptr %4, align 8, !tbaa !34
  %5 = getelementptr inbounds nuw i8, ptr %3, i64 8
  tail call void @ff_blockdsp_init(ptr noundef nonnull %5) #6
  %6 = getelementptr inbounds nuw i8, ptr %3, i64 40
  tail call void @ff_bswapdsp_init(ptr noundef nonnull %6) #6
  tail call void @ff_mpeg12_init_vlcs() #6
  %7 = tail call ptr @av_frame_alloc() #6
  %8 = getelementptr inbounds nuw i8, ptr %3, i64 56
  store ptr %7, ptr %8, align 8, !tbaa !35
  %.not = icmp eq ptr %7, null
  %. = select i1 %.not, i32 -12, i32 0
  ret i32 %.
}